(dp1
S'output'
p2
S'<class \'_mysql_exceptions.OperationalError\'> (1066, "Not unique table/alias: \'Parent\'")'
p3
sS'layer'
p4
S'/home/prankester/Web2Py/web2py-master/applications/Assignment1/controllers/default.py'
p5
sS'code'
p6
S"def index():\n    #defining query\n    #form=SQLFORM.grid(db_connect.Child)\n    Parent_alias=db_connect.Parent.with_alias('Parent')\n    rows=db_connect().select(db_connect.Child.id,db_connect.Child.cname,db_connect.Parent.name,Parent_alias.name,\n    left=[db_connect.Parent.on(db_connect.Child.mother==db_connect.Parent.id),\n            Parent_alias.on(db_connect.Child.father==Parent_alias.id)])\n    return dict(rows=rows)\n\nresponse._vars=response._caller(index)\n"
p7
sS'snapshot'
p8
(dp9
sS'traceback'
p10
S'Traceback (most recent call last):\n  File "/home/prankester/Web2Py/web2py-master/gluon/restricted.py", line 212, in restricted\n    exec ccode in environment\n  File "/home/prankester/Web2Py/web2py-master/applications/Assignment1/controllers/default.py", line 10, in <module>\n  File "/home/prankester/Web2Py/web2py-master/gluon/globals.py", line 194, in <lambda>\n    self._caller = lambda f: f()\n  File "/home/prankester/Web2Py/web2py-master/applications/Assignment1/controllers/default.py", line 7, in index\n    Parent_alias.on(db_connect.Child.father==Parent_alias.id)])\n  File "/home/prankester/Web2Py/web2py-master/gluon/dal.py", line 9933, in select\n    return adapter.select(self.query,fields,attributes)\n  File "/home/prankester/Web2Py/web2py-master/gluon/dal.py", line 1709, in select\n    return self._select_aux(sql,fields,attributes)\n  File "/home/prankester/Web2Py/web2py-master/gluon/dal.py", line 1674, in _select_aux\n    self.execute(sql)\n  File "/home/prankester/Web2Py/web2py-master/gluon/dal.py", line 1789, in execute\n    return self.log_execute(*a, **b)\n  File "/home/prankester/Web2Py/web2py-master/gluon/dal.py", line 1783, in log_execute\n    ret = self.cursor.execute(command, *a[1:], **b)\n  File "/usr/lib/python2.7/dist-packages/MySQLdb/cursors.py", line 174, in execute\n    self.errorhandler(self, exc, value)\n  File "/usr/lib/python2.7/dist-packages/MySQLdb/connections.py", line 36, in defaulterrorhandler\n    raise errorclass, errorvalue\nOperationalError: (1066, "Not unique table/alias: \'Parent\'")\n'
p11
s.